; Function Attrs: mustprogress uwtable
define hidden noundef ptr @_ZN7datalog27explanation_relation_plugin13mk_project_fnERKNS_13relation_baseEjPKj(ptr noundef nonnull readnone align 8 dereferenceable(64) %this, ptr noundef nonnull align 8 dereferenceable(28) %r, i32 noundef %col_cnt, ptr noundef %removed_cols) unnamed_addr #3 align 2 personality ptr @__gxx_personality_v0 {
entry:
  %m_plugin.i = getelementptr inbounds i8, ptr %r, i64 8
  %0 = load ptr, ptr %m_plugin.i, align 8
  %cmp.not = icmp eq ptr %0, %this
  br i1 %cmp.not, label %if.end, label %return

if.end:                                           ; preds = %entry
  %call2 = tail call noalias noundef ptr @_ZN6memory8allocateEm(i64 noundef 24)
  %m_signature.i = getelementptr inbounds i8, ptr %r, i64 16
  %m_result_sig.i.i.i = getelementptr inbounds i8, ptr %call2, i64 8
  store ptr null, ptr %m_result_sig.i.i.i, align 8
  store ptr getelementptr inbounds ({ [5 x ptr] }, ptr @_ZTVN7datalog17tr_infrastructureINS_15relation_traitsEE21convenient_project_fnE, i64 0, i32 0, i64 2), ptr %call2, align 8
  %m_removed_cols.i.i = getelementptr inbounds i8, ptr %call2, i64 16
  store ptr null, ptr %m_removed_cols.i.i, align 8
  %cmp3.not.i.i.i.i = icmp eq i32 %col_cnt, 0
  br i1 %cmp3.not.i.i.i.i, label %invoke.cont.i.i, label %for.body.preheader.i.i.i.i

for.body.preheader.i.i.i.i:                       ; preds = %if.end
  %wide.trip.count.i.i.i.i = zext i32 %col_cnt to i64
  br label %for.body.i.i.i.i

for.bodythread-pre-split.i.i.i.i:                 ; preds = %_ZN6vectorIjLb0EjE9push_backERKj.exit.i.i.i.i
  %.pr.i.i.i.i = load ptr, ptr %m_removed_cols.i.i, align 8
  br label %for.body.i.i.i.i

for.body.i.i.i.i:                                 ; preds = %for.bodythread-pre-split.i.i.i.i, %for.body.preheader.i.i.i.i
  %1 = phi ptr [ %.pr.i.i.i.i, %for.bodythread-pre-split.i.i.i.i ], [ null, %for.body.preheader.i.i.i.i ]
  %indvars.iv.i.i.i.i = phi i64 [ %indvars.iv.next.i.i.i.i, %for.bodythread-pre-split.i.i.i.i ], [ 0, %for.body.preheader.i.i.i.i ]
  %arrayidx.i.i.i.i = getelementptr inbounds i32, ptr %removed_cols, i64 %indvars.iv.i.i.i.i
  %cmp.i.i.i.i.i = icmp eq ptr %1, null
  br i1 %cmp.i.i.i.i.i, label %if.then.i.i.i.i.i, label %lor.lhs.false.i.i.i.i.i

lor.lhs.false.i.i.i.i.i:                          ; preds = %for.body.i.i.i.i
  %arrayidx.i.i.i.i.i = getelementptr inbounds i8, ptr %1, i64 -4
  %2 = load i32, ptr %arrayidx.i.i.i.i.i, align 4
  %arrayidx4.i.i.i.i.i = getelementptr inbounds i8, ptr %1, i64 -8
  %3 = load i32, ptr %arrayidx4.i.i.i.i.i, align 4
  %cmp5.i.i.i.i.i = icmp eq i32 %2, %3
  br i1 %cmp5.i.i.i.i.i, label %if.then.i.i.i.i.i, label %_ZN6vectorIjLb0EjE9push_backERKj.exit.i.i.i.i

if.then.i.i.i.i.i:                                ; preds = %lor.lhs.false.i.i.i.i.i, %for.body.i.i.i.i
  invoke void @_ZN6vectorIjLb0EjE13expand_vectorEv(ptr noundef nonnull align 8 dereferenceable(8) %m_removed_cols.i.i)
          to label %.noexc.i.i unwind label %lpad.i.i

.noexc.i.i:                                       ; preds = %if.then.i.i.i.i.i
  %.pre.i.i.i.i.i = load ptr, ptr %m_removed_cols.i.i, align 8
  %arrayidx8.phi.trans.insert.i.i.i.i.i = getelementptr inbounds i8, ptr %.pre.i.i.i.i.i, i64 -4
  %.pre1.i.i.i.i.i = load i32, ptr %arrayidx8.phi.trans.insert.i.i.i.i.i, align 4
  br label %_ZN6vectorIjLb0EjE9push_backERKj.exit.i.i.i.i

_ZN6vectorIjLb0EjE9push_backERKj.exit.i.i.i.i:    ; preds = %.noexc.i.i, %lor.lhs.false.i.i.i.i.i
  %4 = phi i32 [ %.pre1.i.i.i.i.i, %.noexc.i.i ], [ %2, %lor.lhs.false.i.i.i.i.i ]
  %5 = phi ptr [ %.pre.i.i.i.i.i, %.noexc.i.i ], [ %1, %lor.lhs.false.i.i.i.i.i ]
  %idx.ext.i.i.i.i.i = zext i32 %4 to i64
  %add.ptr.i.i.i.i.i = getelementptr inbounds i32, ptr %5, i64 %idx.ext.i.i.i.i.i
  %6 = load i32, ptr %arrayidx.i.i.i.i, align 4
  store i32 %6, ptr %add.ptr.i.i.i.i.i, align 4
  %7 = load ptr, ptr %m_removed_cols.i.i, align 8
  %arrayidx10.i.i.i.i.i = getelementptr inbounds i8, ptr %7, i64 -4
  %8 = load i32, ptr %arrayidx10.i.i.i.i.i, align 4
  %inc.i.i.i.i.i = add i32 %8, 1
  store i32 %inc.i.i.i.i.i, ptr %arrayidx10.i.i.i.i.i, align 4
  %indvars.iv.next.i.i.i.i = add nuw nsw i64 %indvars.iv.i.i.i.i, 1
  %exitcond.not.i.i.i.i = icmp eq i64 %indvars.iv.next.i.i.i.i, %wide.trip.count.i.i.i.i
  br i1 %exitcond.not.i.i.i.i, label %invoke.cont.i.i, label %for.bodythread-pre-split.i.i.i.i, !llvm.loop !8

invoke.cont.i.i:                                  ; preds = %_ZN6vectorIjLb0EjE9push_backERKj.exit.i.i.i.i, %if.end
  invoke void @_ZN7datalog17tr_infrastructureINS_15relation_traitsEE14signature_base12from_projectERKNS_18relation_signatureEjPKjRS4_(ptr noundef nonnull align 8 dereferenceable(8) %m_signature.i, i32 noundef %col_cnt, ptr noundef %removed_cols, ptr noundef nonnull align 8 dereferenceable(8) %m_result_sig.i.i.i)
          to label %_ZN7datalog27explanation_relation_plugin10project_fnC2ERKNS_18relation_signatureEjPKj.exit unwind label %lpad2.i.i

lpad.i.i:                                         ; preds = %if.then.i.i.i.i.i
  %9 = landingpad { ptr, i32 }
          cleanup
  br label %ehcleanup.i.i

lpad2.i.i:                                        ; preds = %invoke.cont.i.i
  %10 = landingpad { ptr, i32 }
          cleanup
  tail call void @_ZN7svectorIjjED2Ev(ptr noundef nonnull align 8 dereferenceable(8) %m_removed_cols.i.i) #16
  br label %ehcleanup.i.i

ehcleanup.i.i:                                    ; preds = %lpad2.i.i, %lpad.i.i
  %.pn.i.i = phi { ptr, i32 } [ %10, %lpad2.i.i ], [ %9, %lpad.i.i ]
  tail call void @_ZN7datalog17tr_infrastructureINS_15relation_traitsEE25convenient_transformer_fnD2Ev(ptr noundef nonnull align 8 dereferenceable(16) %call2) #16
  resume { ptr, i32 } %.pn.i.i

_ZN7datalog27explanation_relation_plugin10project_fnC2ERKNS_18relation_signatureEjPKj.exit: ; preds = %invoke.cont.i.i
  store ptr getelementptr inbounds ({ [5 x ptr] }, ptr @_ZTVN7datalog27explanation_relation_plugin10project_fnE, i64 0, i32 0, i64 2), ptr %call2, align 8
  br label %return

return:                                           ; preds = %entry, %_ZN7datalog27explanation_relation_plugin10project_fnC2ERKNS_18relation_signatureEjPKj.exit
  %retval.0 = phi ptr [ %call2, %_ZN7datalog27explanation_relation_plugin10project_fnC2ERKNS_18relation_signatureEjPKj.exit ], [ null, %entry ]
  ret ptr %retval.0
}